; Function Attrs: nounwind uwtable
define zeroext range(i8 0, 2) i8 @l_Array_isEqvAux___at_Lean_Elab_Term_elabCDotFunctionAlias_x3f___spec__11(ptr readnone captures(none) %0, ptr readnone captures(none) %1, ptr readnone captures(none) %2, ptr noundef readonly captures(none) %3, ptr noundef readonly captures(none) %4, ptr noundef %5, ptr readnone captures(none) %6) local_unnamed_addr #0 {
  %8 = getelementptr inbounds nuw i8, ptr %3, i64 24
  %9 = getelementptr inbounds nuw i8, ptr %4, i64 24
  br label %lean_dec.exit24

lean_dec.exit24:                                  ; preds = %lean_array_fget.exit34, %7
  %.021 = phi ptr [ %5, %7 ], [ %.1.i37, %lean_array_fget.exit34 ]
  %10 = ptrtoint ptr %.021 to i64
  %11 = and i64 %10, 1
  %.not = icmp eq i64 %11, 0
  br i1 %.not, label %lean_nat_eq.exit.thread, label %lean_nat_eq.exit, !prof !16

lean_nat_eq.exit:                                 ; preds = %lean_dec.exit24
  %.not45 = icmp eq ptr %.021, inttoptr (i64 1 to ptr)
  br i1 %.not45, label %.loopexit, label %13

lean_nat_eq.exit.thread:                          ; preds = %lean_dec.exit24
  %12 = tail call zeroext i1 @lean_nat_big_eq(ptr noundef %.021, ptr noundef nonnull inttoptr (i64 1 to ptr)) #6
  br i1 %12, label %.thread38, label %.thread

13:                                               ; preds = %lean_nat_eq.exit
  %14 = icmp ult ptr %.021, inttoptr (i64 2 to ptr)
  br i1 %14, label %lean_dec.exit25, label %15

15:                                               ; preds = %13
  %16 = add i64 %10, -2
  %17 = inttoptr i64 %16 to ptr
  br label %lean_dec.exit25

.thread:                                          ; preds = %lean_nat_eq.exit.thread
  %18 = tail call ptr @lean_nat_big_sub(ptr noundef %.021, ptr noundef nonnull inttoptr (i64 3 to ptr)) #6
  %19 = load i32, ptr %.021, align 4, !tbaa !4
  %20 = icmp sgt i32 %19, 1
  br i1 %20, label %21, label %23, !prof !9

21:                                               ; preds = %.thread
  %22 = add nsw i32 %19, -1
  store i32 %22, ptr %.021, align 4, !tbaa !4
  br label %lean_dec.exit25

23:                                               ; preds = %.thread
  %.not.i = icmp eq i32 %19, 0
  br i1 %.not.i, label %lean_dec.exit25, label %24

24:                                               ; preds = %23
  tail call void @lean_dec_ref_cold(ptr noundef nonnull %.021) #6
  br label %lean_dec.exit25

lean_dec.exit25:                                  ; preds = %15, %13, %24, %23, %21
  %.1.i37 = phi ptr [ %18, %21 ], [ %18, %23 ], [ %18, %24 ], [ inttoptr (i64 1 to ptr), %13 ], [ %17, %15 ]
  %25 = ptrtoint ptr %.1.i37 to i64
  %26 = lshr i64 %25, 1
  %27 = getelementptr inbounds nuw [0 x ptr], ptr %8, i64 0, i64 %26
  %28 = load ptr, ptr %27, align 8, !tbaa !10
  %29 = ptrtoint ptr %28 to i64
  %30 = and i64 %29, 1
  %.not.i.i = icmp eq i64 %30, 0
  br i1 %.not.i.i, label %31, label %lean_array_fget.exit

31:                                               ; preds = %lean_dec.exit25
  %.val.i.i.i = load i32, ptr %28, align 4, !tbaa !4
  %32 = icmp sgt i32 %.val.i.i.i, 0
  br i1 %32, label %33, label %35, !prof !9

33:                                               ; preds = %31
  %34 = add nuw i32 %.val.i.i.i, 1
  store i32 %34, ptr %28, align 4, !tbaa !4
  br label %lean_array_fget.exit

35:                                               ; preds = %31
  %.not.i.i.i = icmp eq i32 %.val.i.i.i, 0
  br i1 %.not.i.i.i, label %lean_array_fget.exit, label %36

36:                                               ; preds = %35
  tail call void @lean_inc_ref_cold(ptr noundef nonnull %28) #6
  br label %lean_array_fget.exit

lean_array_fget.exit:                             ; preds = %lean_dec.exit25, %33, %35, %36
  %37 = getelementptr inbounds nuw [0 x ptr], ptr %9, i64 0, i64 %26
  %38 = load ptr, ptr %37, align 8, !tbaa !10
  %39 = ptrtoint ptr %38 to i64
  %40 = and i64 %39, 1
  %.not.i.i31 = icmp eq i64 %40, 0
  br i1 %.not.i.i31, label %41, label %lean_array_fget.exit34

41:                                               ; preds = %lean_array_fget.exit
  %.val.i.i.i32 = load i32, ptr %38, align 4, !tbaa !4
  %42 = icmp sgt i32 %.val.i.i.i32, 0
  br i1 %42, label %43, label %45, !prof !9

43:                                               ; preds = %41
  %44 = add nuw i32 %.val.i.i.i32, 1
  store i32 %44, ptr %38, align 4, !tbaa !4
  br label %lean_array_fget.exit34

45:                                               ; preds = %41
  %.not.i.i.i33 = icmp eq i32 %.val.i.i.i32, 0
  br i1 %.not.i.i.i33, label %lean_array_fget.exit34, label %46

46:                                               ; preds = %45
  tail call void @lean_inc_ref_cold(ptr noundef nonnull %38) #6
  br label %lean_array_fget.exit34

lean_array_fget.exit34:                           ; preds = %lean_array_fget.exit, %43, %45, %46
  %47 = tail call zeroext i8 @l_Lean_Syntax_structEq(ptr noundef %28, ptr noundef %38) #6
  %48 = icmp eq i8 %47, 0
  br i1 %48, label %49, label %lean_dec.exit24

49:                                               ; preds = %lean_array_fget.exit34
  %50 = and i64 %25, 1
  %.not46 = icmp eq i64 %50, 0
  br i1 %.not46, label %51, label %.loopexit

51:                                               ; preds = %49
  %52 = load i32, ptr %.1.i37, align 4, !tbaa !4
  %53 = icmp sgt i32 %52, 1
  br i1 %53, label %54, label %56, !prof !9

54:                                               ; preds = %51
  %55 = add nsw i32 %52, -1
  store i32 %55, ptr %.1.i37, align 4, !tbaa !4
  br label %.loopexit

56:                                               ; preds = %51
  %.not.i26 = icmp eq i32 %52, 0
  br i1 %.not.i26, label %.loopexit, label %57

57:                                               ; preds = %56
  tail call void @lean_dec_ref_cold(ptr noundef nonnull %.1.i37) #6
  br label %.loopexit

.thread38:                                        ; preds = %lean_nat_eq.exit.thread
  %58 = load i32, ptr %.021, align 4, !tbaa !4
  %59 = icmp sgt i32 %58, 1
  br i1 %59, label %60, label %62, !prof !9

60:                                               ; preds = %.thread38
  %61 = add nsw i32 %58, -1
  store i32 %61, ptr %.021, align 4, !tbaa !4
  br label %.loopexit

62:                                               ; preds = %.thread38
  %.not.i28 = icmp eq i32 %58, 0
  br i1 %.not.i28, label %.loopexit, label %63

63:                                               ; preds = %62
  tail call void @lean_dec_ref_cold(ptr noundef nonnull %.021) #6
  br label %.loopexit

.loopexit:                                        ; preds = %lean_nat_eq.exit, %57, %56, %54, %49, %63, %62, %60
  %.2.ph = phi i8 [ 1, %60 ], [ 1, %62 ], [ 1, %63 ], [ 0, %49 ], [ 0, %54 ], [ 0, %56 ], [ 0, %57 ], [ 1, %lean_nat_eq.exit ]
  ret i8 %.2.ph
}